; ModuleID = '21/1573.c'
source_filename = "21/1573.c"
target datalayout = "e-m:e-p270:32:32-p271:32:32-p272:64:64-i64:64-f80:128-n8:16:32:64-S128"
target triple = "x86_64-pc-linux-gnu"

%struct.point = type { i32, float }

@.str = private unnamed_addr constant [3 x i8] c"%d\00", align 1
@.str.1 = private unnamed_addr constant [4 x i8] c",%d\00", align 1

; Function Attrs: noinline nounwind uwtable
define dso_local i32 @main() #0 {
  %1 = alloca i32, align 4
  %2 = alloca [300 x %struct.point], align 16
  %3 = alloca float, align 4
  %4 = alloca i32, align 4
  %5 = alloca i32, align 4
  %6 = alloca i32, align 4
  %7 = alloca i32, align 4
  %8 = alloca %struct.point, align 4
  %9 = alloca [300 x i32], align 16
  store i32 0, i32* %1, align 4
  store i32 0, i32* %6, align 4
  %10 = call i32 (i8*, ...) @__isoc99_scanf(i8* getelementptr inbounds ([3 x i8], [3 x i8]* @.str, i64 0, i64 0), i32* %4)
  store i32 1, i32* %5, align 4
  br label %11

11:                                               ; preds = %26, %0
  %12 = load i32, i32* %5, align 4
  %13 = load i32, i32* %4, align 4
  %14 = icmp sle i32 %12, %13
  br i1 %14, label %15, label %29

15:                                               ; preds = %11
  %16 = load i32, i32* %5, align 4
  %17 = sext i32 %16 to i64
  %18 = getelementptr inbounds [300 x i32], [300 x i32]* %9, i64 0, i64 %17
  %19 = call i32 (i8*, ...) @__isoc99_scanf(i8* getelementptr inbounds ([3 x i8], [3 x i8]* @.str, i64 0, i64 0), i32* %18)
  %20 = load i32, i32* %5, align 4
  %21 = sext i32 %20 to i64
  %22 = getelementptr inbounds [300 x i32], [300 x i32]* %9, i64 0, i64 %21
  %23 = load i32, i32* %22, align 4
  %24 = load i32, i32* %6, align 4
  %25 = add nsw i32 %23, %24
  store i32 %25, i32* %6, align 4
  br label %26

26:                                               ; preds = %15
  %27 = load i32, i32* %5, align 4
  %28 = add nsw i32 %27, 1
  store i32 %28, i32* %5, align 4
  br label %11

29:                                               ; preds = %11
  %30 = load i32, i32* %6, align 4
  %31 = sitofp i32 %30 to double
  %32 = fmul double %31, 1.000000e+00
  %33 = load i32, i32* %4, align 4
  %34 = sitofp i32 %33 to double
  %35 = fdiv double %32, %34
  %36 = fptrunc double %35 to float
  store float %36, float* %3, align 4
  store i32 1, i32* %5, align 4
  br label %37

37:                                               ; preds = %82, %29
  %38 = load i32, i32* %5, align 4
  %39 = load i32, i32* %4, align 4
  %40 = icmp sle i32 %38, %39
  br i1 %40, label %41, label %85

41:                                               ; preds = %37
  %42 = load i32, i32* %5, align 4
  %43 = sext i32 %42 to i64
  %44 = getelementptr inbounds [300 x i32], [300 x i32]* %9, i64 0, i64 %43
  %45 = load i32, i32* %44, align 4
  %46 = load i32, i32* %5, align 4
  %47 = sext i32 %46 to i64
  %48 = getelementptr inbounds [300 x %struct.point], [300 x %struct.point]* %2, i64 0, i64 %47
  %49 = getelementptr inbounds %struct.point, %struct.point* %48, i32 0, i32 0
  store i32 %45, i32* %49, align 8
  %50 = load float, float* %3, align 4
  %51 = load i32, i32* %5, align 4
  %52 = sext i32 %51 to i64
  %53 = getelementptr inbounds [300 x i32], [300 x i32]* %9, i64 0, i64 %52
  %54 = load i32, i32* %53, align 4
  %55 = sitofp i32 %54 to float
  %56 = fcmp ogt float %50, %55
  br i1 %56, label %57, label %69

57:                                               ; preds = %41
  %58 = load float, float* %3, align 4
  %59 = load i32, i32* %5, align 4
  %60 = sext i32 %59 to i64
  %61 = getelementptr inbounds [300 x i32], [300 x i32]* %9, i64 0, i64 %60
  %62 = load i32, i32* %61, align 4
  %63 = sitofp i32 %62 to float
  %64 = fsub float %58, %63
  %65 = load i32, i32* %5, align 4
  %66 = sext i32 %65 to i64
  %67 = getelementptr inbounds [300 x %struct.point], [300 x %struct.point]* %2, i64 0, i64 %66
  %68 = getelementptr inbounds %struct.point, %struct.point* %67, i32 0, i32 1
  store float %64, float* %68, align 4
  br label %81

69:                                               ; preds = %41
  %70 = load i32, i32* %5, align 4
  %71 = sext i32 %70 to i64
  %72 = getelementptr inbounds [300 x i32], [300 x i32]* %9, i64 0, i64 %71
  %73 = load i32, i32* %72, align 4
  %74 = sitofp i32 %73 to float
  %75 = load float, float* %3, align 4
  %76 = fsub float %74, %75
  %77 = load i32, i32* %5, align 4
  %78 = sext i32 %77 to i64
  %79 = getelementptr inbounds [300 x %struct.point], [300 x %struct.point]* %2, i64 0, i64 %78
  %80 = getelementptr inbounds %struct.point, %struct.point* %79, i32 0, i32 1
  store float %76, float* %80, align 4
  br label %81

81:                                               ; preds = %69, %57
  br label %82

82:                                               ; preds = %81
  %83 = load i32, i32* %5, align 4
  %84 = add nsw i32 %83, 1
  store i32 %84, i32* %5, align 4
  br label %37

85:                                               ; preds = %37
  %86 = load i32, i32* %4, align 4
  %87 = sub nsw i32 %86, 1
  store i32 %87, i32* %5, align 4
  br label %88

88:                                               ; preds = %135, %85
  %89 = load i32, i32* %5, align 4
  %90 = icmp sge i32 %89, 1
  br i1 %90, label %91, label %138

91:                                               ; preds = %88
  store i32 1, i32* %7, align 4
  br label %92

92:                                               ; preds = %131, %91
  %93 = load i32, i32* %7, align 4
  %94 = load i32, i32* %5, align 4
  %95 = icmp sle i32 %93, %94
  br i1 %95, label %96, label %134

96:                                               ; preds = %92
  %97 = load i32, i32* %7, align 4
  %98 = sext i32 %97 to i64
  %99 = getelementptr inbounds [300 x %struct.point], [300 x %struct.point]* %2, i64 0, i64 %98
  %100 = getelementptr inbounds %struct.point, %struct.point* %99, i32 0, i32 1
  %101 = load float, float* %100, align 4
  %102 = load i32, i32* %7, align 4
  %103 = add nsw i32 %102, 1
  %104 = sext i32 %103 to i64
  %105 = getelementptr inbounds [300 x %struct.point], [300 x %struct.point]* %2, i64 0, i64 %104
  %106 = getelementptr inbounds %struct.point, %struct.point* %105, i32 0, i32 1
  %107 = load float, float* %106, align 4
  %108 = fcmp olt float %101, %107
  br i1 %108, label %109, label %130

109:                                              ; preds = %96
  %110 = load i32, i32* %7, align 4
  %111 = sext i32 %110 to i64
  %112 = getelementptr inbounds [300 x %struct.point], [300 x %struct.point]* %2, i64 0, i64 %111
  %113 = bitcast %struct.point* %8 to i8*
  %114 = bitcast %struct.point* %112 to i8*
  call void @llvm.memcpy.p0i8.p0i8.i64(i8* align 4 %113, i8* align 8 %114, i64 8, i1 false)
  %115 = load i32, i32* %7, align 4
  %116 = sext i32 %115 to i64
  %117 = getelementptr inbounds [300 x %struct.point], [300 x %struct.point]* %2, i64 0, i64 %116
  %118 = load i32, i32* %7, align 4
  %119 = add nsw i32 %118, 1
  %120 = sext i32 %119 to i64
  %121 = getelementptr inbounds [300 x %struct.point], [300 x %struct.point]* %2, i64 0, i64 %120
  %122 = bitcast %struct.point* %117 to i8*
  %123 = bitcast %struct.point* %121 to i8*
  call void @llvm.memcpy.p0i8.p0i8.i64(i8* align 8 %122, i8* align 8 %123, i64 8, i1 false)
  %124 = load i32, i32* %7, align 4
  %125 = add nsw i32 %124, 1
  %126 = sext i32 %125 to i64
  %127 = getelementptr inbounds [300 x %struct.point], [300 x %struct.point]* %2, i64 0, i64 %126
  %128 = bitcast %struct.point* %127 to i8*
  %129 = bitcast %struct.point* %8 to i8*
  call void @llvm.memcpy.p0i8.p0i8.i64(i8* align 8 %128, i8* align 4 %129, i64 8, i1 false)
  br label %130

130:                                              ; preds = %109, %96
  br label %131

131:                                              ; preds = %130
  %132 = load i32, i32* %7, align 4
  %133 = add nsw i32 %132, 1
  store i32 %133, i32* %7, align 4
  br label %92

134:                                              ; preds = %92
  br label %135

135:                                              ; preds = %134
  %136 = load i32, i32* %5, align 4
  %137 = add nsw i32 %136, -1
  store i32 %137, i32* %5, align 4
  br label %88

138:                                              ; preds = %88
  %139 = getelementptr inbounds [300 x %struct.point], [300 x %struct.point]* %2, i64 0, i64 1
  %140 = getelementptr inbounds %struct.point, %struct.point* %139, i32 0, i32 0
  %141 = load i32, i32* %140, align 8
  %142 = call i32 (i8*, ...) @printf(i8* getelementptr inbounds ([3 x i8], [3 x i8]* @.str, i64 0, i64 0), i32 %141)
  store i32 2, i32* %5, align 4
  br label %143

143:                                              ; preds = %165, %138
  %144 = load i32, i32* %5, align 4
  %145 = load i32, i32* %4, align 4
  %146 = icmp sle i32 %144, %145
  br i1 %146, label %147, label %168

147:                                              ; preds = %143
  %148 = load i32, i32* %5, align 4
  %149 = sext i32 %148 to i64
  %150 = getelementptr inbounds [300 x %struct.point], [300 x %struct.point]* %2, i64 0, i64 %149
  %151 = getelementptr inbounds %struct.point, %struct.point* %150, i32 0, i32 1
  %152 = load float, float* %151, align 4
  %153 = getelementptr inbounds [300 x %struct.point], [300 x %struct.point]* %2, i64 0, i64 1
  %154 = getelementptr inbounds %struct.point, %struct.point* %153, i32 0, i32 1
  %155 = load float, float* %154, align 4
  %156 = fcmp oeq float %152, %155
  br i1 %156, label %157, label %164

157:                                              ; preds = %147
  %158 = load i32, i32* %5, align 4
  %159 = sext i32 %158 to i64
  %160 = getelementptr inbounds [300 x %struct.point], [300 x %struct.point]* %2, i64 0, i64 %159
  %161 = getelementptr inbounds %struct.point, %struct.point* %160, i32 0, i32 0
  %162 = load i32, i32* %161, align 8
  %163 = call i32 (i8*, ...) @printf(i8* getelementptr inbounds ([4 x i8], [4 x i8]* @.str.1, i64 0, i64 0), i32 %162)
  br label %164

164:                                              ; preds = %157, %147
  br label %165

165:                                              ; preds = %164
  %166 = load i32, i32* %5, align 4
  %167 = add nsw i32 %166, 1
  store i32 %167, i32* %5, align 4
  br label %143

168:                                              ; preds = %143
  ret i32 0
}

declare dso_local i32 @__isoc99_scanf(i8*, ...) #1

; Function Attrs: argmemonly nounwind willreturn
declare void @llvm.memcpy.p0i8.p0i8.i64(i8* noalias nocapture writeonly, i8* noalias nocapture readonly, i64, i1 immarg) #2

declare dso_local i32 @printf(i8*, ...) #1


!llvm.module.flags = !{!0}
!llvm.ident = !{!1}

!0 = !{i32 1, !"wchar_size", i32 4}
!1 = !{!"clang version 10.0.0-4ubuntu1 "}
